; Function Attrs: mustprogress nofree norecurse nosync nounwind willreturn memory(read, inaccessiblemem: none) uwtable
define i64 @_ZNK5arrow20DayTimeIntervalArray8GetValueEl(ptr noundef nonnull readonly align 8 captures(none) dereferenceable(40) %0, i64 noundef %1) local_unnamed_addr #5 align 2 {
  %3 = getelementptr inbounds nuw i8, ptr %0, i64 32
  %4 = load ptr, ptr %3, align 8, !tbaa !74
  %5 = getelementptr inbounds nuw i8, ptr %0, i64 8
  %6 = load ptr, ptr %5, align 8, !tbaa !53
  %7 = getelementptr inbounds nuw i8, ptr %6, i64 32
  %8 = load i64, ptr %7, align 8, !tbaa !111
  %9 = add nsw i64 %8, %1
  %10 = shl nsw i64 %9, 3
  %11 = getelementptr inbounds i8, ptr %4, i64 %10
  %.sroa.0.0.copyload = load i64, ptr %11, align 4
  ret i64 %.sroa.0.0.copyload
}